target datalayout = "e-m:e-p270:32:32-p271:32:32-p272:64:64-i64:64-i128:128-f80:128-n8:16:32:64-S128"
target triple = "x86_64-pc-linux-gnu"

%struct.pbl_node_t = type { i32, ptr, ptr, ptr, ptr, ptr, ptr, i32 }

; Function Attrs: null_pointer_is_valid sspstrong uwtable
define internal void @pbl_init_node(ptr noundef %0, ptr noundef %1, i32 noundef %2, i32 noundef %3, ptr noundef %4) #0 {
  %6 = alloca ptr, align 8
  %7 = alloca ptr, align 8
  %8 = alloca i32, align 4
  %9 = alloca i32, align 4
  %10 = alloca ptr, align 8
  store ptr %0, ptr %6, align 8
  store ptr %1, ptr %7, align 8
  store i32 %2, ptr %8, align 4
  store i32 %3, ptr %9, align 4
  store ptr %4, ptr %10, align 8
  %11 = load i32, ptr %9, align 4
  %12 = load ptr, ptr %6, align 8
  %13 = getelementptr inbounds nuw %struct.pbl_node_t, ptr %12, i32 0, i32 0
  store i32 %11, ptr %13, align 8
  %14 = load ptr, ptr %10, align 8
  %15 = call noalias ptr @g_strdup(ptr noundef %14)
  %16 = load ptr, ptr %6, align 8
  %17 = getelementptr inbounds nuw %struct.pbl_node_t, ptr %16, i32 0, i32 1
  store ptr %15, ptr %17, align 8
  %18 = load ptr, ptr %7, align 8
  %19 = load ptr, ptr %6, align 8
  %20 = getelementptr inbounds nuw %struct.pbl_node_t, ptr %19, i32 0, i32 6
  store ptr %18, ptr %20, align 8
  %21 = load i32, ptr %8, align 4
  %22 = icmp sgt i32 %21, -1
  br i1 %22, label %23, label %25

23:                                               ; preds = %5
  %24 = load i32, ptr %8, align 4
  br label %26

25:                                               ; preds = %5
  br label %26

26:                                               ; preds = %25, %23
  %27 = phi i32 [ %24, %23 ], [ -1, %25 ]
  %28 = load ptr, ptr %6, align 8
  %29 = getelementptr inbounds nuw %struct.pbl_node_t, ptr %28, i32 0, i32 7
  store i32 %27, ptr %29, align 8
  ret void
}

; Function Attrs: null_pointer_is_valid sspstrong uwtable
define hidden ptr @pbl_create_node(ptr noundef %0, i32 noundef %1, i32 noundef %2, ptr noundef %3) #0 {
  %5 = alloca ptr, align 8
  %6 = alloca ptr, align 8
  %7 = alloca i32, align 4
  %8 = alloca i32, align 4
  %9 = alloca ptr, align 8
  %10 = alloca ptr, align 8
  %11 = alloca i32, align 4
  %12 = alloca i64, align 8
  %13 = alloca i64, align 8
  %14 = alloca ptr, align 8
  %15 = alloca ptr, align 8
  store ptr %0, ptr %6, align 8
  store i32 %1, ptr %7, align 4
  store i32 %2, ptr %8, align 4
  store ptr %3, ptr %9, align 8
  call void @llvm.lifetime.start.p0(i64 8, ptr %10) #13
  store ptr null, ptr %10, align 8
  %16 = load i32, ptr %8, align 4
  switch i32 %16, label %22 [
    i32 9, label %17
    i32 3, label %17
    i32 5, label %17
    i32 7, label %17
    i32 11, label %17
    i32 2, label %18
    i32 6, label %20
  ]

17:                                               ; preds = %4, %4, %4, %4, %4
  store ptr null, ptr %5, align 8
  store i32 1, ptr %11, align 4
  br label %59

18:                                               ; preds = %4
  %19 = call noalias ptr @g_malloc0(i64 noundef 80) #14
  store ptr %19, ptr %10, align 8
  br label %52

20:                                               ; preds = %4
  %21 = call noalias ptr @g_malloc0(i64 noundef 80) #14
  store ptr %21, ptr %10, align 8
  br label %52

22:                                               ; preds = %4
  call void @llvm.lifetime.start.p0(i64 8, ptr %12) #13
  store i64 1, ptr %12, align 8
  call void @llvm.lifetime.start.p0(i64 8, ptr %13) #13
  store i64 64, ptr %13, align 8
  call void @llvm.lifetime.start.p0(i64 8, ptr %14) #13
  %23 = load i64, ptr %13, align 8
  %24 = icmp eq i64 %23, 1
  br i1 %24, label %25, label %28

25:                                               ; preds = %22
  %26 = load i64, ptr %12, align 8
  %27 = call noalias ptr @g_malloc0(i64 noundef %26) #14
  store ptr %27, ptr %14, align 8
  br label %49

28:                                               ; preds = %22
  %29 = load i64, ptr %12, align 8
  %30 = call i1 @llvm.is.constant.i64(i64 %29)
  br i1 %30, label %31, label %44

31:                                               ; preds = %28
  %32 = load i64, ptr %13, align 8
  %33 = icmp eq i64 %32, 0
  br i1 %33, label %39, label %34

34:                                               ; preds = %31
  %35 = load i64, ptr %12, align 8
  %36 = load i64, ptr %13, align 8
  %37 = udiv i64 -1, %36
  %38 = icmp ule i64 %35, %37
  br i1 %38, label %39, label %44

39:                                               ; preds = %34, %31
  %40 = load i64, ptr %12, align 8
  %41 = load i64, ptr %13, align 8
  %42 = mul i64 %40, %41
  %43 = call noalias ptr @g_malloc0(i64 noundef %42) #14
  store ptr %43, ptr %14, align 8
  br label %48

44:                                               ; preds = %34, %28
  %45 = load i64, ptr %12, align 8
  %46 = load i64, ptr %13, align 8
  %47 = call noalias ptr @g_malloc0_n(i64 noundef %45, i64 noundef %46) #15
  store ptr %47, ptr %14, align 8
  br label %48

48:                                               ; preds = %44, %39
  br label %49

49:                                               ; preds = %48, %25
  %50 = load ptr, ptr %14, align 8
  store ptr %50, ptr %15, align 8
  call void @llvm.lifetime.end.p0(i64 8, ptr %14) #13
  call void @llvm.lifetime.end.p0(i64 8, ptr %13) #13
  call void @llvm.lifetime.end.p0(i64 8, ptr %12) #13
  %51 = load ptr, ptr %15, align 8
  store ptr %51, ptr %10, align 8
  br label %52

52:                                               ; preds = %49, %20, %18
  %53 = load ptr, ptr %10, align 8
  %54 = load ptr, ptr %6, align 8
  %55 = load i32, ptr %7, align 4
  %56 = load i32, ptr %8, align 4
  %57 = load ptr, ptr %9, align 8
  call void @pbl_init_node(ptr noundef %53, ptr noundef %54, i32 noundef %55, i32 noundef %56, ptr noundef %57)
  %58 = load ptr, ptr %10, align 8
  store ptr %58, ptr %5, align 8
  store i32 1, ptr %11, align 4
  br label %59

59:                                               ; preds = %52, %17
  call void @llvm.lifetime.end.p0(i64 8, ptr %10) #13
  %60 = load ptr, ptr %5, align 8
  ret ptr %60
}