; Function Attrs: null_pointer_is_valid sspstrong uwtable
define hidden noalias noundef ptr @pbl_create_node(ptr noundef %0, i32 noundef %1, i32 noundef %2, ptr noundef %3) local_unnamed_addr #0 {
  switch i32 %2, label %5 [
    i32 9, label %13
    i32 3, label %13
    i32 5, label %13
    i32 7, label %13
    i32 11, label %13
    i32 2, label %6
    i32 6, label %6
  ]

5:                                                ; preds = %4
  br label %6

6:                                                ; preds = %4, %4, %5
  %.sink = phi i64 [ 64, %5 ], [ 80, %4 ], [ 80, %4 ]
  %7 = tail call noalias dereferenceable_or_null(64) ptr @g_malloc0(i64 noundef %.sink) #13
  store i32 %2, ptr %7, align 8
  %8 = tail call noalias ptr @g_strdup(ptr noundef %3)
  %9 = getelementptr inbounds nuw i8, ptr %7, i64 8
  store ptr %8, ptr %9, align 8
  %10 = getelementptr inbounds nuw i8, ptr %7, i64 48
  store ptr %0, ptr %10, align 8
  %11 = tail call i32 @llvm.smax.i32(i32 %1, i32 -1)
  %12 = getelementptr inbounds nuw i8, ptr %7, i64 56
  store i32 %11, ptr %12, align 8
  br label %13

13:                                               ; preds = %4, %4, %4, %4, %4, %6
  %.0 = phi ptr [ %7, %6 ], [ null, %4 ], [ null, %4 ], [ null, %4 ], [ null, %4 ], [ null, %4 ]
  ret ptr %.0
}